(i__main__
Phonebook
p0
(dp1
S'reversed'
p2
(dp3
S'398 291 9281'
p4
S'John Doe'
p5
sS'123 456 4323'
p6
S'John Michael'
p7
ssS'original'
p8
(dp9
S'John'
p10
(dp11
S'John Michael'
p12
g6
sS'John Doe'
p13
g4
sssb.