(i__main__
Phonebook
p0
(dp1
S'reversed'
p2
(dp3
S'919-247-0014'
p4
S'Daria Jung'
p5
sS'483-573-5748'
p6
S'Daria Nope'
p7
sS'392-281-3821'
p8
S'Piper Chapman'
p9
ssS'original'
p10
(dp11
S'Piper'
p12
(dp13
sS'Daria'
p14
(dp15
g5
g4
sg7
S'xxx-xxx-xxxx'
p16
sssb.